target datalayout = "e-m:e-p270:32:32-p271:32:32-p272:64:64-i64:64-i128:128-f80:128-n8:16:32:64-S128"
target triple = "x86_64-pc-linux-gnu"

%union.pthread_mutex_t = type { %struct.__pthread_mutex_s }
%struct.__pthread_mutex_s = type { i32, i32, i32, i32, i32, i16, i16, %struct.__pthread_internal_list }
%struct.__pthread_internal_list = type { ptr, ptr }
%struct.git_zstream = type { %struct.z_stream_s, i64, i64, i64, i64, ptr, ptr }
%struct.z_stream_s = type { ptr, i32, i64, ptr, i32, i64, ptr, ptr, ptr, ptr, ptr, i32, i64, i64 }

@obj_read_use_lock = dso_local global i32 0, align 4
@obj_read_mutex = dso_local global %union.pthread_mutex_t zeroinitializer, align 8

; Function Attrs: inlinehint nounwind uwtable
define internal void @obj_read_lock() #7 {
  %1 = load i32, ptr @obj_read_use_lock, align 4, !tbaa !43
  %2 = icmp ne i32 %1, 0
  br i1 %2, label %3, label %5

3:                                                ; preds = %0
  %4 = call i32 @pthread_mutex_lock(ptr noundef @obj_read_mutex) #14
  br label %5

5:                                                ; preds = %3, %0
  ret void
}

; Function Attrs: inlinehint nounwind uwtable
define internal void @obj_read_unlock() #7 {
  %1 = load i32, ptr @obj_read_use_lock, align 4, !tbaa !43
  %2 = icmp ne i32 %1, 0
  br i1 %2, label %3, label %5

3:                                                ; preds = %0
  %4 = call i32 @pthread_mutex_unlock(ptr noundef @obj_read_mutex) #14
  br label %5

5:                                                ; preds = %3, %0
  ret void
}

; Function Attrs: nounwind uwtable
define dso_local i32 @unpack_loose_header(ptr noundef %0, ptr noundef %1, i64 noundef %2, ptr noundef %3, i64 noundef %4, ptr noundef %5) #0 {
  %7 = alloca i32, align 4
  %8 = alloca ptr, align 8
  %9 = alloca ptr, align 8
  %10 = alloca i64, align 8
  %11 = alloca ptr, align 8
  %12 = alloca i64, align 8
  %13 = alloca ptr, align 8
  %14 = alloca i32, align 4
  %15 = alloca i32, align 4
  store ptr %0, ptr %8, align 8, !tbaa !116
  store ptr %1, ptr %9, align 8, !tbaa !12
  store i64 %2, ptr %10, align 8, !tbaa !10
  store ptr %3, ptr %11, align 8, !tbaa !9
  store i64 %4, ptr %12, align 8, !tbaa !10
  store ptr %5, ptr %13, align 8, !tbaa !62
  call void @llvm.lifetime.start.p0(i64 4, ptr %14) #14
  %16 = load ptr, ptr %8, align 8, !tbaa !116
  call void @llvm.memset.p0.i64(ptr align 8 %16, i8 0, i64 160, i1 false)
  %17 = load ptr, ptr %9, align 8, !tbaa !12
  %18 = load ptr, ptr %8, align 8, !tbaa !116
  %19 = getelementptr inbounds nuw %struct.git_zstream, ptr %18, i32 0, i32 5
  store ptr %17, ptr %19, align 8, !tbaa !118
  %20 = load i64, ptr %10, align 8, !tbaa !10
  %21 = load ptr, ptr %8, align 8, !tbaa !116
  %22 = getelementptr inbounds nuw %struct.git_zstream, ptr %21, i32 0, i32 1
  store i64 %20, ptr %22, align 8, !tbaa !122
  %23 = load ptr, ptr %11, align 8, !tbaa !9
  %24 = load ptr, ptr %8, align 8, !tbaa !116
  %25 = getelementptr inbounds nuw %struct.git_zstream, ptr %24, i32 0, i32 6
  store ptr %23, ptr %25, align 8, !tbaa !123
  %26 = load i64, ptr %12, align 8, !tbaa !10
  %27 = load ptr, ptr %8, align 8, !tbaa !116
  %28 = getelementptr inbounds nuw %struct.git_zstream, ptr %27, i32 0, i32 2
  store i64 %26, ptr %28, align 8, !tbaa !124
  %29 = load ptr, ptr %8, align 8, !tbaa !116
  call void @git_inflate_init(ptr noundef %29)
  call void @obj_read_unlock()
  %30 = load ptr, ptr %8, align 8, !tbaa !116
  %31 = call i32 @git_inflate(ptr noundef %30, i32 noundef 0)
  store i32 %31, ptr %14, align 4, !tbaa !43
  call void @obj_read_lock()
  %32 = load i32, ptr %14, align 4, !tbaa !43
  %33 = icmp slt i32 %32, 0
  br i1 %33, label %34, label %35

34:                                               ; preds = %6
  store i32 1, ptr %7, align 4
  store i32 1, ptr %15, align 4
  br label %101

35:                                               ; preds = %6
  %36 = load ptr, ptr %11, align 8, !tbaa !9
  %37 = load ptr, ptr %8, align 8, !tbaa !116
  %38 = getelementptr inbounds nuw %struct.git_zstream, ptr %37, i32 0, i32 6
  %39 = load ptr, ptr %38, align 8, !tbaa !123
  %40 = load ptr, ptr %11, align 8, !tbaa !9
  %41 = ptrtoint ptr %39 to i64
  %42 = ptrtoint ptr %40 to i64
  %43 = sub i64 %41, %42
  %44 = call ptr @memchr(ptr noundef %36, i32 noundef 0, i64 noundef %43) #15
  %45 = icmp ne ptr %44, null
  br i1 %45, label %46, label %47

46:                                               ; preds = %35
  store i32 0, ptr %7, align 4
  store i32 1, ptr %15, align 4
  br label %101

47:                                               ; preds = %35
  %48 = load ptr, ptr %13, align 8, !tbaa !62
  %49 = icmp ne ptr %48, null
  br i1 %49, label %51, label %50

50:                                               ; preds = %47
  store i32 2, ptr %7, align 4
  store i32 1, ptr %15, align 4
  br label %101

51:                                               ; preds = %47
  %52 = load ptr, ptr %13, align 8, !tbaa !62
  %53 = load ptr, ptr %11, align 8, !tbaa !9
  %54 = load ptr, ptr %8, align 8, !tbaa !116
  %55 = getelementptr inbounds nuw %struct.git_zstream, ptr %54, i32 0, i32 6
  %56 = load ptr, ptr %55, align 8, !tbaa !123
  %57 = load ptr, ptr %11, align 8, !tbaa !9
  %58 = ptrtoint ptr %56 to i64
  %59 = ptrtoint ptr %57 to i64
  %60 = sub i64 %58, %59
  call void @strbuf_add(ptr noundef %52, ptr noundef %53, i64 noundef %60)
  %61 = load ptr, ptr %11, align 8, !tbaa !9
  %62 = load ptr, ptr %8, align 8, !tbaa !116
  %63 = getelementptr inbounds nuw %struct.git_zstream, ptr %62, i32 0, i32 6
  store ptr %61, ptr %63, align 8, !tbaa !123
  %64 = load i64, ptr %12, align 8, !tbaa !10
  %65 = load ptr, ptr %8, align 8, !tbaa !116
  %66 = getelementptr inbounds nuw %struct.git_zstream, ptr %65, i32 0, i32 2
  store i64 %64, ptr %66, align 8, !tbaa !124
  br label %67

67:                                               ; preds = %97, %51
  call void @obj_read_unlock()
  %68 = load ptr, ptr %8, align 8, !tbaa !116
  %69 = call i32 @git_inflate(ptr noundef %68, i32 noundef 0)
  store i32 %69, ptr %14, align 4, !tbaa !43
  call void @obj_read_lock()
  %70 = load ptr, ptr %13, align 8, !tbaa !62
  %71 = load ptr, ptr %11, align 8, !tbaa !9
  %72 = load ptr, ptr %8, align 8, !tbaa !116
  %73 = getelementptr inbounds nuw %struct.git_zstream, ptr %72, i32 0, i32 6
  %74 = load ptr, ptr %73, align 8, !tbaa !123
  %75 = load ptr, ptr %11, align 8, !tbaa !9
  %76 = ptrtoint ptr %74 to i64
  %77 = ptrtoint ptr %75 to i64
  %78 = sub i64 %76, %77
  call void @strbuf_add(ptr noundef %70, ptr noundef %71, i64 noundef %78)
  %79 = load ptr, ptr %11, align 8, !tbaa !9
  %80 = load ptr, ptr %8, align 8, !tbaa !116
  %81 = getelementptr inbounds nuw %struct.git_zstream, ptr %80, i32 0, i32 6
  %82 = load ptr, ptr %81, align 8, !tbaa !123
  %83 = load ptr, ptr %11, align 8, !tbaa !9
  %84 = ptrtoint ptr %82 to i64
  %85 = ptrtoint ptr %83 to i64
  %86 = sub i64 %84, %85
  %87 = call ptr @memchr(ptr noundef %79, i32 noundef 0, i64 noundef %86) #15
  %88 = icmp ne ptr %87, null
  br i1 %88, label %89, label %90

89:                                               ; preds = %67
  store i32 0, ptr %7, align 4
  store i32 1, ptr %15, align 4
  br label %101

90:                                               ; preds = %67
  %91 = load ptr, ptr %11, align 8, !tbaa !9
  %92 = load ptr, ptr %8, align 8, !tbaa !116
  %93 = getelementptr inbounds nuw %struct.git_zstream, ptr %92, i32 0, i32 6
  store ptr %91, ptr %93, align 8, !tbaa !123
  %94 = load i64, ptr %12, align 8, !tbaa !10
  %95 = load ptr, ptr %8, align 8, !tbaa !116
  %96 = getelementptr inbounds nuw %struct.git_zstream, ptr %95, i32 0, i32 2
  store i64 %94, ptr %96, align 8, !tbaa !124
  br label %97

97:                                               ; preds = %90
  %98 = load i32, ptr %14, align 4, !tbaa !43
  %99 = icmp ne i32 %98, 1
  br i1 %99, label %67, label %100, !llvm.loop !125

100:                                              ; preds = %97
  store i32 2, ptr %7, align 4
  store i32 1, ptr %15, align 4
  br label %101

101:                                              ; preds = %100, %89, %50, %46, %34
  call void @llvm.lifetime.end.p0(i64 4, ptr %14) #14
  %102 = load i32, ptr %7, align 4
  ret i32 %102
}