; Function Attrs: nounwind uwtable
define dso_local range(i32 0, 3) i32 @unpack_loose_header(ptr noundef initializes((0, 160)) %0, ptr noundef %1, i64 noundef %2, ptr noundef %3, i64 noundef %4, ptr noundef %5) local_unnamed_addr #1 {
  tail call void @llvm.memset.p0.i64(ptr noundef nonnull align 8 dereferenceable(160) %0, i8 0, i64 144, i1 false)
  %7 = getelementptr inbounds nuw i8, ptr %0, i64 144
  store ptr %1, ptr %7, align 8, !tbaa !104
  %8 = getelementptr inbounds nuw i8, ptr %0, i64 112
  store i64 %2, ptr %8, align 8, !tbaa !108
  %9 = getelementptr inbounds nuw i8, ptr %0, i64 152
  store ptr %3, ptr %9, align 8, !tbaa !109
  %10 = getelementptr inbounds nuw i8, ptr %0, i64 120
  store i64 %4, ptr %10, align 8, !tbaa !110
  tail call void @git_inflate_init(ptr noundef nonnull %0) #27
  %11 = load i32, ptr @obj_read_use_lock, align 4, !tbaa !44
  %.not.i = icmp eq i32 %11, 0
  br i1 %.not.i, label %obj_read_unlock.exit, label %12

12:                                               ; preds = %6
  %13 = tail call i32 @pthread_mutex_unlock(ptr noundef nonnull @obj_read_mutex) #27
  br label %obj_read_unlock.exit

obj_read_unlock.exit:                             ; preds = %6, %12
  %14 = tail call i32 @git_inflate(ptr noundef nonnull %0, i32 noundef 0) #27
  %15 = load i32, ptr @obj_read_use_lock, align 4, !tbaa !44
  %.not.i41 = icmp eq i32 %15, 0
  br i1 %.not.i41, label %obj_read_lock.exit, label %16

16:                                               ; preds = %obj_read_unlock.exit
  %17 = tail call i32 @pthread_mutex_lock(ptr noundef nonnull @obj_read_mutex) #27
  br label %obj_read_lock.exit

obj_read_lock.exit:                               ; preds = %obj_read_unlock.exit, %16
  %18 = icmp slt i32 %14, 0
  br i1 %18, label %.loopexit, label %19

19:                                               ; preds = %obj_read_lock.exit
  %20 = load ptr, ptr %9, align 8, !tbaa !109
  %21 = ptrtoint ptr %20 to i64
  %22 = ptrtoint ptr %3 to i64
  %23 = sub i64 %21, %22
  %24 = tail call ptr @memchr(ptr noundef %3, i32 noundef 0, i64 noundef %23) #28
  %.not = icmp eq ptr %24, null
  br i1 %.not, label %25, label %.loopexit

25:                                               ; preds = %19
  %.not38 = icmp eq ptr %5, null
  br i1 %.not38, label %.loopexit, label %26

26:                                               ; preds = %25
  tail call void @strbuf_add(ptr noundef nonnull %5, ptr noundef %3, i64 noundef %23) #27
  store ptr %3, ptr %9, align 8, !tbaa !109
  store i64 %4, ptr %10, align 8, !tbaa !110
  br label %27

27:                                               ; preds = %42, %26
  %28 = load i32, ptr @obj_read_use_lock, align 4, !tbaa !44
  %.not.i42 = icmp eq i32 %28, 0
  br i1 %.not.i42, label %obj_read_unlock.exit43, label %29

29:                                               ; preds = %27
  %30 = tail call i32 @pthread_mutex_unlock(ptr noundef nonnull @obj_read_mutex) #27
  br label %obj_read_unlock.exit43

obj_read_unlock.exit43:                           ; preds = %27, %29
  %31 = tail call i32 @git_inflate(ptr noundef nonnull %0, i32 noundef 0) #27
  %32 = load i32, ptr @obj_read_use_lock, align 4, !tbaa !44
  %.not.i44 = icmp eq i32 %32, 0
  br i1 %.not.i44, label %obj_read_lock.exit45, label %33

33:                                               ; preds = %obj_read_unlock.exit43
  %34 = tail call i32 @pthread_mutex_lock(ptr noundef nonnull @obj_read_mutex) #27
  br label %obj_read_lock.exit45

obj_read_lock.exit45:                             ; preds = %obj_read_unlock.exit43, %33
  %35 = load ptr, ptr %9, align 8, !tbaa !109
  %36 = ptrtoint ptr %35 to i64
  %37 = sub i64 %36, %22
  tail call void @strbuf_add(ptr noundef nonnull %5, ptr noundef %3, i64 noundef %37) #27
  %38 = load ptr, ptr %9, align 8, !tbaa !109
  %39 = ptrtoint ptr %38 to i64
  %40 = sub i64 %39, %22
  %41 = tail call ptr @memchr(ptr noundef %3, i32 noundef 0, i64 noundef %40) #28
  %.not39 = icmp eq ptr %41, null
  br i1 %.not39, label %42, label %.loopexit

42:                                               ; preds = %obj_read_lock.exit45
  store ptr %3, ptr %9, align 8, !tbaa !109
  store i64 %4, ptr %10, align 8, !tbaa !110
  %.not40 = icmp eq i32 %31, 1
  br i1 %.not40, label %.loopexit, label %27, !llvm.loop !111

.loopexit:                                        ; preds = %42, %obj_read_lock.exit45, %25, %19, %obj_read_lock.exit
  %.0 = phi i32 [ 1, %obj_read_lock.exit ], [ 0, %19 ], [ 2, %25 ], [ 2, %42 ], [ 0, %obj_read_lock.exit45 ]
  ret i32 %.0
}